target datalayout = "e-m:e-p270:32:32-p271:32:32-p272:64:64-i64:64-i128:128-f80:128-n8:16:32:64-S128"
target triple = "x86_64-pc-linux-gnu"

%struct.range_set = type { i32, i32, ptr }

@.str = private unnamed_addr constant [27 x i8] c"size_t overflow: %lu * %lu\00", align 1

; Function Attrs: inlinehint nounwind uwtable
define internal i64 @st_mult(i64 noundef %0, i64 noundef %1) #3 {
  %3 = alloca i64, align 8
  %4 = alloca i64, align 8
  store i64 %0, ptr %3, align 8, !tbaa !9
  store i64 %1, ptr %4, align 8, !tbaa !9
  %5 = load i64, ptr %3, align 8, !tbaa !9
  %6 = icmp ne i64 %5, 0
  br i1 %6, label %7, label %15

7:                                                ; preds = %2
  %8 = load i64, ptr %4, align 8, !tbaa !9
  %9 = load i64, ptr %3, align 8, !tbaa !9
  %10 = udiv i64 -1, %9
  %11 = icmp ugt i64 %8, %10
  br i1 %11, label %12, label %15

12:                                               ; preds = %7
  %13 = load i64, ptr %3, align 8, !tbaa !9
  %14 = load i64, ptr %4, align 8, !tbaa !9
  call void (ptr, ...) @die(ptr noundef @.str, i64 noundef %13, i64 noundef %14) #10
  unreachable

15:                                               ; preds = %7, %2
  %16 = load i64, ptr %3, align 8, !tbaa !9
  %17 = load i64, ptr %4, align 8, !tbaa !9
  %18 = mul i64 %16, %17
  ret i64 %18
}

; Function Attrs: nounwind uwtable
define internal void @range_set_grow(ptr noundef %0, i64 noundef %1) #0 {
  %3 = alloca ptr, align 8
  %4 = alloca i64, align 8
  store ptr %0, ptr %3, align 8, !tbaa !4
  store i64 %1, ptr %4, align 8, !tbaa !9
  br label %5

5:                                                ; preds = %2
  %6 = load ptr, ptr %3, align 8, !tbaa !4
  %7 = getelementptr inbounds nuw %struct.range_set, ptr %6, i32 0, i32 1
  %8 = load i32, ptr %7, align 4, !tbaa !11
  %9 = zext i32 %8 to i64
  %10 = load i64, ptr %4, align 8, !tbaa !9
  %11 = add i64 %9, %10
  %12 = load ptr, ptr %3, align 8, !tbaa !4
  %13 = getelementptr inbounds nuw %struct.range_set, ptr %12, i32 0, i32 0
  %14 = load i32, ptr %13, align 8, !tbaa !15
  %15 = zext i32 %14 to i64
  %16 = icmp ugt i64 %11, %15
  br i1 %16, label %17, label %63

17:                                               ; preds = %5
  %18 = load ptr, ptr %3, align 8, !tbaa !4
  %19 = getelementptr inbounds nuw %struct.range_set, ptr %18, i32 0, i32 0
  %20 = load i32, ptr %19, align 8, !tbaa !15
  %21 = add i32 %20, 16
  %22 = mul i32 %21, 3
  %23 = udiv i32 %22, 2
  %24 = zext i32 %23 to i64
  %25 = load ptr, ptr %3, align 8, !tbaa !4
  %26 = getelementptr inbounds nuw %struct.range_set, ptr %25, i32 0, i32 1
  %27 = load i32, ptr %26, align 4, !tbaa !11
  %28 = zext i32 %27 to i64
  %29 = load i64, ptr %4, align 8, !tbaa !9
  %30 = add i64 %28, %29
  %31 = icmp ult i64 %24, %30
  br i1 %31, label %32, label %42

32:                                               ; preds = %17
  %33 = load ptr, ptr %3, align 8, !tbaa !4
  %34 = getelementptr inbounds nuw %struct.range_set, ptr %33, i32 0, i32 1
  %35 = load i32, ptr %34, align 4, !tbaa !11
  %36 = zext i32 %35 to i64
  %37 = load i64, ptr %4, align 8, !tbaa !9
  %38 = add i64 %36, %37
  %39 = trunc i64 %38 to i32
  %40 = load ptr, ptr %3, align 8, !tbaa !4
  %41 = getelementptr inbounds nuw %struct.range_set, ptr %40, i32 0, i32 0
  store i32 %39, ptr %41, align 8, !tbaa !15
  br label %51

42:                                               ; preds = %17
  %43 = load ptr, ptr %3, align 8, !tbaa !4
  %44 = getelementptr inbounds nuw %struct.range_set, ptr %43, i32 0, i32 0
  %45 = load i32, ptr %44, align 8, !tbaa !15
  %46 = add i32 %45, 16
  %47 = mul i32 %46, 3
  %48 = udiv i32 %47, 2
  %49 = load ptr, ptr %3, align 8, !tbaa !4
  %50 = getelementptr inbounds nuw %struct.range_set, ptr %49, i32 0, i32 0
  store i32 %48, ptr %50, align 8, !tbaa !15
  br label %51

51:                                               ; preds = %42, %32
  %52 = load ptr, ptr %3, align 8, !tbaa !4
  %53 = getelementptr inbounds nuw %struct.range_set, ptr %52, i32 0, i32 2
  %54 = load ptr, ptr %53, align 8, !tbaa !16
  %55 = load ptr, ptr %3, align 8, !tbaa !4
  %56 = getelementptr inbounds nuw %struct.range_set, ptr %55, i32 0, i32 0
  %57 = load i32, ptr %56, align 8, !tbaa !15
  %58 = zext i32 %57 to i64
  %59 = call i64 @st_mult(i64 noundef 16, i64 noundef %58)
  %60 = call ptr @xrealloc(ptr noundef %54, i64 noundef %59)
  %61 = load ptr, ptr %3, align 8, !tbaa !4
  %62 = getelementptr inbounds nuw %struct.range_set, ptr %61, i32 0, i32 2
  store ptr %60, ptr %62, align 8, !tbaa !16
  br label %63

63:                                               ; preds = %51, %5
  br label %64

64:                                               ; preds = %63
  ret void
}

; Function Attrs: nounwind uwtable
define dso_local void @range_set_init(ptr noundef %0, i64 noundef %1) #0 {
  %3 = alloca ptr, align 8
  %4 = alloca i64, align 8
  store ptr %0, ptr %3, align 8, !tbaa !4
  store i64 %1, ptr %4, align 8, !tbaa !9
  %5 = load ptr, ptr %3, align 8, !tbaa !4
  %6 = getelementptr inbounds nuw %struct.range_set, ptr %5, i32 0, i32 1
  store i32 0, ptr %6, align 4, !tbaa !11
  %7 = load ptr, ptr %3, align 8, !tbaa !4
  %8 = getelementptr inbounds nuw %struct.range_set, ptr %7, i32 0, i32 0
  store i32 0, ptr %8, align 8, !tbaa !15
  %9 = load ptr, ptr %3, align 8, !tbaa !4
  %10 = getelementptr inbounds nuw %struct.range_set, ptr %9, i32 0, i32 2
  store ptr null, ptr %10, align 8, !tbaa !16
  %11 = load i64, ptr %4, align 8, !tbaa !9
  %12 = icmp ne i64 %11, 0
  br i1 %12, label %13, label %16

13:                                               ; preds = %2
  %14 = load ptr, ptr %3, align 8, !tbaa !4
  %15 = load i64, ptr %4, align 8, !tbaa !9
  call void @range_set_grow(ptr noundef %14, i64 noundef %15)
  br label %16

16:                                               ; preds = %13, %2
  ret void
}