; Function Attrs: nounwind uwtable
define dso_local void @range_set_init(ptr noundef writeonly captures(none) initializes((0, 16)) %0, i64 noundef %1) local_unnamed_addr #0 {
  %.not = icmp eq i64 %1, 0
  tail call void @llvm.memset.p0.i64(ptr noundef nonnull align 8 dereferenceable(16) %0, i8 0, i64 16, i1 false)
  br i1 %.not, label %7, label %range_set_grow.exit

range_set_grow.exit:                              ; preds = %2
  %3 = getelementptr inbounds nuw i8, ptr %0, i64 8
  %storemerge14.i = tail call i64 @llvm.umax.i64(i64 %1, i64 24)
  %storemerge.i = trunc i64 %storemerge14.i to i32
  store i32 %storemerge.i, ptr %0, align 8, !tbaa !4
  %4 = shl i64 %storemerge14.i, 4
  %5 = and i64 %4, 68719476720
  %6 = tail call ptr @xrealloc(ptr noundef null, i64 noundef %5) #16
  store ptr %6, ptr %3, align 8, !tbaa !11
  br label %7

7:                                                ; preds = %range_set_grow.exit, %2
  ret void
}